; Function Attrs: mustprogress uwtable
define void @_ZNK5ZXing10DataMatrix6Reader6decodeERKNS_12BinaryBitmapE(ptr dead_on_unwind noalias writable sret(%"class.ZXing::Result") align 8 %0, ptr noundef nonnull align 8 dereferenceable(17) %1, ptr noundef nonnull align 8 dereferenceable(56) %2) unnamed_addr #0 align 2 personality ptr @__gxx_personality_v0 {
  %4 = alloca %"class.std::vector.8", align 8
  call void @llvm.lifetime.start.p0(i64 24, ptr nonnull %4) #16
  %5 = load ptr, ptr %1, align 8, !tbaa !3
  %6 = getelementptr inbounds nuw i8, ptr %5, i64 24
  %7 = load ptr, ptr %6, align 8
  call void %7(ptr dead_on_unwind nonnull writable sret(%"class.std::vector.8") align 8 %4, ptr noundef nonnull align 8 dereferenceable(17) %1, ptr noundef nonnull align 8 dereferenceable(56) %2, i32 noundef 1)
  invoke void @_ZN5ZXing14FirstOrDefaultITtTpTyESt6vectorJNS_6ResultESaIS2_EEEEDaOT_IJDpT0_EE(ptr dead_on_unwind writable sret(%"class.ZXing::Result") align 8 %0, ptr noundef nonnull align 8 dereferenceable(24) %4)
          to label %8 unwind label %9

8:                                                ; preds = %3
  call void @_ZNSt6vectorIN5ZXing6ResultESaIS1_EED2Ev(ptr noundef nonnull align 8 dereferenceable(24) %4) #16
  call void @llvm.lifetime.end.p0(i64 24, ptr nonnull %4) #16
  ret void

9:                                                ; preds = %3
  %10 = landingpad { ptr, i32 }
          cleanup
  call void @_ZNSt6vectorIN5ZXing6ResultESaIS1_EED2Ev(ptr noundef nonnull align 8 dereferenceable(24) %4) #16
  call void @llvm.lifetime.end.p0(i64 24, ptr nonnull %4) #16
  resume { ptr, i32 } %10
}